target datalayout = "e-m:e-p270:32:32-p271:32:32-p272:64:64-i64:64-i128:128-f80:128-n8:16:32:64-S128"
target triple = "x86_64-unknown-linux-gnu"

%struct.QObject = type { %struct.QObjectBase_ }
%struct.QObjectBase_ = type { i32, i64 }
%struct.QDictEntry = type { ptr, ptr, %struct.anon }
%struct.anon = type { ptr, ptr }
%struct.QDict = type { %struct.QObjectBase_, i64, [512 x %struct.anon.0] }
%struct.anon.0 = type { ptr }

@.str = private unnamed_addr constant [3 x i8] c"%u\00", align 1
@.str.1 = private unnamed_addr constant [18 x i8] c"snprintf_ret < 32\00", align 1
@.str.2 = private unnamed_addr constant [30 x i8] c"../qemu/qobject/block-qdict.c\00", align 1
@__PRETTY_FUNCTION__.qdict_array_split = private unnamed_addr constant [42 x i8] c"void qdict_array_split(QDict *, QList **)\00", align 1
@.str.3 = private unnamed_addr constant [4 x i8] c"%u.\00", align 1
@.str.4 = private unnamed_addr constant [25 x i8] c"qdict_size(subqdict) > 0\00", align 1

; Function Attrs: nounwind sspstrong uwtable
define internal void @qobject_ref_impl(ptr noundef %obj) #0 {
entry:
  %obj.addr = alloca ptr, align 8
  store ptr %obj, ptr %obj.addr, align 8
  %0 = load ptr, ptr %obj.addr, align 8
  %tobool = icmp ne ptr %0, null
  br i1 %tobool, label %if.then, label %if.end

if.then:                                          ; preds = %entry
  %1 = load ptr, ptr %obj.addr, align 8
  %base = getelementptr inbounds %struct.QObject, ptr %1, i32 0, i32 0
  %refcnt = getelementptr inbounds %struct.QObjectBase_, ptr %base, i32 0, i32 1
  %2 = load i64, ptr %refcnt, align 8
  %inc = add i64 %2, 1
  store i64 %inc, ptr %refcnt, align 8
  br label %if.end

if.end:                                           ; preds = %if.then, %entry
  ret void
}

; Function Attrs: nounwind sspstrong uwtable
define internal i32 @qdict_count_prefixed_entries(ptr noundef %src, ptr noundef %start) #0 {
entry:
  %retval = alloca i32, align 4
  %src.addr = alloca ptr, align 8
  %start.addr = alloca ptr, align 8
  %entry1 = alloca ptr, align 8
  %count = alloca i32, align 4
  store ptr %src, ptr %src.addr, align 8
  store ptr %start, ptr %start.addr, align 8
  store i32 0, ptr %count, align 4
  %0 = load ptr, ptr %src.addr, align 8
  %call = call ptr @qdict_first(ptr noundef %0)
  store ptr %call, ptr %entry1, align 8
  br label %for.cond

for.cond:                                         ; preds = %for.inc, %entry
  %1 = load ptr, ptr %entry1, align 8
  %tobool = icmp ne ptr %1, null
  br i1 %tobool, label %for.body, label %for.end

for.body:                                         ; preds = %for.cond
  %2 = load ptr, ptr %entry1, align 8
  %key = getelementptr inbounds %struct.QDictEntry, ptr %2, i32 0, i32 0
  %3 = load ptr, ptr %key, align 8
  %4 = load ptr, ptr %start.addr, align 8
  %call2 = call i32 @strstart(ptr noundef %3, ptr noundef %4, ptr noundef null)
  %tobool3 = icmp ne i32 %call2, 0
  br i1 %tobool3, label %if.then, label %if.end5

if.then:                                          ; preds = %for.body
  %5 = load i32, ptr %count, align 4
  %cmp = icmp eq i32 %5, 2147483647
  br i1 %cmp, label %if.then4, label %if.end

if.then4:                                         ; preds = %if.then
  store i32 -34, ptr %retval, align 4
  br label %return

if.end:                                           ; preds = %if.then
  %6 = load i32, ptr %count, align 4
  %inc = add i32 %6, 1
  store i32 %inc, ptr %count, align 4
  br label %if.end5

if.end5:                                          ; preds = %if.end, %for.body
  br label %for.inc

for.inc:                                          ; preds = %if.end5
  %7 = load ptr, ptr %src.addr, align 8
  %8 = load ptr, ptr %entry1, align 8
  %call6 = call ptr @qdict_next(ptr noundef %7, ptr noundef %8)
  store ptr %call6, ptr %entry1, align 8
  br label %for.cond, !llvm.loop !9

for.end:                                          ; preds = %for.cond
  %9 = load i32, ptr %count, align 4
  store i32 %9, ptr %retval, align 4
  br label %return

return:                                           ; preds = %for.end, %if.then4
  %10 = load i32, ptr %retval, align 4
  ret i32 %10
}

; Function Attrs: nounwind sspstrong uwtable
define dso_local void @qdict_array_split(ptr noundef %src, ptr noundef %dst) #0 {
entry:
  %src.addr = alloca ptr, align 8
  %dst.addr = alloca ptr, align 8
  %i = alloca i32, align 4
  %subqobj = alloca ptr, align 8
  %is_subqdict = alloca i8, align 1
  %subqdict = alloca ptr, align 8
  %indexstr = alloca [32 x i8], align 16
  %prefix = alloca [32 x i8], align 16
  %snprintf_ret = alloca i64, align 8
  %_obj4 = alloca ptr, align 8
  %tmp = alloca ptr, align 8
  %__mptr = alloca ptr, align 8
  %tmp34 = alloca ptr, align 8
  %_o = alloca ptr, align 8
  %_obj5 = alloca ptr, align 8
  %tmp36 = alloca ptr, align 8
  %__mptr39 = alloca ptr, align 8
  %tmp41 = alloca ptr, align 8
  %tmp46 = alloca ptr, align 8
  store ptr %src, ptr %src.addr, align 8
  store ptr %dst, ptr %dst.addr, align 8
  %call = call ptr @qlist_new()
  %0 = load ptr, ptr %dst.addr, align 8
  store ptr %call, ptr %0, align 8
  store i32 0, ptr %i, align 4
  br label %for.cond

for.cond:                                         ; preds = %for.inc, %entry
  %1 = load i32, ptr %i, align 4
  %cmp = icmp ult i32 %1, -1
  br i1 %cmp, label %for.body, label %for.end

for.body:                                         ; preds = %for.cond
  %arraydecay = getelementptr inbounds [32 x i8], ptr %indexstr, i64 0, i64 0
  %2 = load i32, ptr %i, align 4
  %call1 = call i32 (ptr, i64, ptr, ...) @snprintf(ptr noundef %arraydecay, i64 noundef 32, ptr noundef @.str, i32 noundef %2) #5
  %conv = sext i32 %call1 to i64
  store i64 %conv, ptr %snprintf_ret, align 8
  %3 = load i64, ptr %snprintf_ret, align 8
  %cmp2 = icmp ult i64 %3, 32
  br i1 %cmp2, label %if.then, label %if.else

if.then:                                          ; preds = %for.body
  br label %if.end

if.else:                                          ; preds = %for.body
  call void @__assert_fail(ptr noundef @.str.1, ptr noundef @.str.2, i32 noundef 232, ptr noundef @__PRETTY_FUNCTION__.qdict_array_split) #6
  unreachable

if.end:                                           ; preds = %if.then
  %4 = load ptr, ptr %src.addr, align 8
  %arraydecay4 = getelementptr inbounds [32 x i8], ptr %indexstr, i64 0, i64 0
  %call5 = call ptr @qdict_get(ptr noundef %4, ptr noundef %arraydecay4)
  store ptr %call5, ptr %subqobj, align 8
  %arraydecay6 = getelementptr inbounds [32 x i8], ptr %prefix, i64 0, i64 0
  %5 = load i32, ptr %i, align 4
  %call7 = call i32 (ptr, i64, ptr, ...) @snprintf(ptr noundef %arraydecay6, i64 noundef 32, ptr noundef @.str.3, i32 noundef %5) #5
  %conv8 = sext i32 %call7 to i64
  store i64 %conv8, ptr %snprintf_ret, align 8
  %6 = load i64, ptr %snprintf_ret, align 8
  %cmp9 = icmp ult i64 %6, 32
  br i1 %cmp9, label %if.then11, label %if.else12

if.then11:                                        ; preds = %if.end
  br label %if.end13

if.else12:                                        ; preds = %if.end
  call void @__assert_fail(ptr noundef @.str.1, ptr noundef @.str.2, i32 noundef 237, ptr noundef @__PRETTY_FUNCTION__.qdict_array_split) #6
  unreachable

if.end13:                                         ; preds = %if.then11
  %7 = load ptr, ptr %src.addr, align 8
  %arraydecay14 = getelementptr inbounds [32 x i8], ptr %prefix, i64 0, i64 0
  %call15 = call i32 @qdict_count_prefixed_entries(ptr noundef %7, ptr noundef %arraydecay14)
  %tobool = icmp ne i32 %call15, 0
  %frombool = zext i1 %tobool to i8
  store i8 %frombool, ptr %is_subqdict, align 1
  %8 = load ptr, ptr %subqobj, align 8
  %tobool16 = icmp ne ptr %8, null
  %lnot = xor i1 %tobool16, true
  %lnot.ext = zext i1 %lnot to i32
  %9 = load i8, ptr %is_subqdict, align 1
  %tobool17 = trunc i8 %9 to i1
  %lnot18 = xor i1 %tobool17, true
  %lnot.ext19 = zext i1 %lnot18 to i32
  %cmp20 = icmp eq i32 %lnot.ext, %lnot.ext19
  br i1 %cmp20, label %if.then22, label %if.end23

if.then22:                                        ; preds = %if.end13
  br label %for.end

if.end23:                                         ; preds = %if.end13
  %10 = load i8, ptr %is_subqdict, align 1
  %tobool24 = trunc i8 %10 to i1
  br i1 %tobool24, label %if.then25, label %if.else35

if.then25:                                        ; preds = %if.end23
  %11 = load ptr, ptr %src.addr, align 8
  %arraydecay26 = getelementptr inbounds [32 x i8], ptr %prefix, i64 0, i64 0
  call void @qdict_extract_subqdict(ptr noundef %11, ptr noundef %subqdict, ptr noundef %arraydecay26)
  %12 = load ptr, ptr %subqdict, align 8
  %call27 = call i64 @qdict_size(ptr noundef %12)
  %cmp28 = icmp ugt i64 %call27, 0
  br i1 %cmp28, label %if.then30, label %if.else31

if.then30:                                        ; preds = %if.then25
  br label %if.end32

if.else31:                                        ; preds = %if.then25
  call void @__assert_fail(ptr noundef @.str.4, ptr noundef @.str.2, i32 noundef 253, ptr noundef @__PRETTY_FUNCTION__.qdict_array_split) #6
  unreachable

if.end32:                                         ; preds = %if.then30
  %13 = load ptr, ptr %dst.addr, align 8
  %14 = load ptr, ptr %13, align 8
  %15 = load ptr, ptr %subqdict, align 8
  store ptr %15, ptr %_obj4, align 8
  %16 = load ptr, ptr %_obj4, align 8
  %tobool33 = icmp ne ptr %16, null
  br i1 %tobool33, label %cond.true, label %cond.false

cond.true:                                        ; preds = %if.end32
  %17 = load ptr, ptr %_obj4, align 8
  %base = getelementptr inbounds %struct.QDict, ptr %17, i32 0, i32 0
  store ptr %base, ptr %__mptr, align 8
  %18 = load ptr, ptr %__mptr, align 8
  %add.ptr = getelementptr i8, ptr %18, i64 0
  store ptr %add.ptr, ptr %tmp34, align 8
  %19 = load ptr, ptr %tmp34, align 8
  br label %cond.end

cond.false:                                       ; preds = %if.end32
  br label %cond.end

cond.end:                                         ; preds = %cond.false, %cond.true
  %cond = phi ptr [ %19, %cond.true ], [ null, %cond.false ]
  store ptr %cond, ptr %tmp, align 8
  %20 = load ptr, ptr %tmp, align 8
  call void @qlist_append_obj(ptr noundef %14, ptr noundef %20)
  br label %if.end48

if.else35:                                        ; preds = %if.end23
  %21 = load ptr, ptr %subqobj, align 8
  store ptr %21, ptr %_o, align 8
  %22 = load ptr, ptr %_o, align 8
  store ptr %22, ptr %_obj5, align 8
  %23 = load ptr, ptr %_obj5, align 8
  %tobool37 = icmp ne ptr %23, null
  br i1 %tobool37, label %cond.true38, label %cond.false43

cond.true38:                                      ; preds = %if.else35
  %24 = load ptr, ptr %_obj5, align 8
  %base40 = getelementptr inbounds %struct.QObject, ptr %24, i32 0, i32 0
  store ptr %base40, ptr %__mptr39, align 8
  %25 = load ptr, ptr %__mptr39, align 8
  %add.ptr42 = getelementptr i8, ptr %25, i64 0
  store ptr %add.ptr42, ptr %tmp41, align 8
  %26 = load ptr, ptr %tmp41, align 8
  br label %cond.end44

cond.false43:                                     ; preds = %if.else35
  br label %cond.end44

cond.end44:                                       ; preds = %cond.false43, %cond.true38
  %cond45 = phi ptr [ %26, %cond.true38 ], [ null, %cond.false43 ]
  store ptr %cond45, ptr %tmp36, align 8
  %27 = load ptr, ptr %tmp36, align 8
  call void @qobject_ref_impl(ptr noundef %27)
  %28 = load ptr, ptr %_o, align 8
  store ptr %28, ptr %tmp46, align 8
  %29 = load ptr, ptr %src.addr, align 8
  %arraydecay47 = getelementptr inbounds [32 x i8], ptr %indexstr, i64 0, i64 0
  call void @qdict_del(ptr noundef %29, ptr noundef %arraydecay47)
  %30 = load ptr, ptr %dst.addr, align 8
  %31 = load ptr, ptr %30, align 8
  %32 = load ptr, ptr %subqobj, align 8
  call void @qlist_append_obj(ptr noundef %31, ptr noundef %32)
  br label %if.end48

if.end48:                                         ; preds = %cond.end44, %cond.end
  br label %for.inc

for.inc:                                          ; preds = %if.end48
  %33 = load i32, ptr %i, align 4
  %inc = add i32 %33, 1
  store i32 %inc, ptr %i, align 4
  br label %for.cond, !llvm.loop !8

for.end:                                          ; preds = %if.then22, %for.cond
  ret void
}