; Function Attrs: nounwind sspstrong uwtable
define dso_local void @qdict_array_split(ptr noundef %src, ptr noundef captures(none) initializes((0, 8)) %dst) local_unnamed_addr #0 {
entry:
  %subqdict = alloca ptr, align 8
  %indexstr = alloca [32 x i8], align 16
  %prefix = alloca [32 x i8], align 16
  %call = tail call ptr @qlist_new() #7
  store ptr %call, ptr %dst, align 8
  br label %for.body

for.body:                                         ; preds = %entry, %for.inc
  %i.031 = phi i32 [ 0, %entry ], [ %inc, %for.inc ]
  %call1 = call i32 (ptr, i64, ptr, ...) @snprintf(ptr noundef nonnull dereferenceable(1) %indexstr, i64 noundef 32, ptr noundef nonnull @.str, i32 noundef %i.031) #7
  %cmp2 = icmp ult i32 %call1, 32
  br i1 %cmp2, label %if.end, label %if.else

if.else:                                          ; preds = %for.body
  call void @__assert_fail(ptr noundef nonnull @.str.1, ptr noundef nonnull @.str.2, i32 noundef 232, ptr noundef nonnull @__PRETTY_FUNCTION__.qdict_array_split) #8
  unreachable

if.end:                                           ; preds = %for.body
  %call5 = call ptr @qdict_get(ptr noundef %src, ptr noundef nonnull %indexstr) #7
  %call7 = call i32 (ptr, i64, ptr, ...) @snprintf(ptr noundef nonnull dereferenceable(1) %prefix, i64 noundef 32, ptr noundef nonnull @.str.3, i32 noundef %i.031) #7
  %cmp9 = icmp ult i32 %call7, 32
  br i1 %cmp9, label %if.end13, label %if.else12

if.else12:                                        ; preds = %if.end
  call void @__assert_fail(ptr noundef nonnull @.str.1, ptr noundef nonnull @.str.2, i32 noundef 237, ptr noundef nonnull @__PRETTY_FUNCTION__.qdict_array_split) #8
  unreachable

if.end13:                                         ; preds = %if.end
  %call.i = call ptr @qdict_first(ptr noundef %src) #7
  %tobool.not6.i = icmp eq ptr %call.i, null
  br i1 %tobool.not6.i, label %if.end13.qdict_count_prefixed_entries.exit_crit_edge, label %for.body.i

if.end13.qdict_count_prefixed_entries.exit_crit_edge: ; preds = %if.end13
  %tobool16.not24.not = icmp eq ptr %call5, null
  br i1 %tobool16.not24.not, label %for.end, label %if.then.i18

for.body.i:                                       ; preds = %if.end13, %for.inc.i
  %count.08.i = phi i32 [ %count.1.i, %for.inc.i ], [ 0, %if.end13 ]
  %entry1.07.i = phi ptr [ %call6.i, %for.inc.i ], [ %call.i, %if.end13 ]
  %0 = load ptr, ptr %entry1.07.i, align 8
  %call2.i = call i32 @strstart(ptr noundef %0, ptr noundef nonnull %prefix, ptr noundef null) #7
  %tobool3.not.i = icmp eq i32 %call2.i, 0
  br i1 %tobool3.not.i, label %for.inc.i, label %if.then.i

if.then.i:                                        ; preds = %for.body.i
  %cmp.i = icmp eq i32 %count.08.i, 2147483647
  br i1 %cmp.i, label %if.then.i.qdict_count_prefixed_entries.exit_crit_edge, label %if.end.i

if.then.i.qdict_count_prefixed_entries.exit_crit_edge: ; preds = %if.then.i
  %tobool16.not21 = icmp eq ptr %call5, null
  br i1 %tobool16.not21, label %if.then25, label %for.end

if.end.i:                                         ; preds = %if.then.i
  %inc.i = add nsw i32 %count.08.i, 1
  br label %for.inc.i

for.inc.i:                                        ; preds = %if.end.i, %for.body.i
  %count.1.i = phi i32 [ %inc.i, %if.end.i ], [ %count.08.i, %for.body.i ]
  %call6.i = call ptr @qdict_next(ptr noundef %src, ptr noundef nonnull %entry1.07.i) #7
  %tobool.not.i = icmp eq ptr %call6.i, null
  br i1 %tobool.not.i, label %qdict_count_prefixed_entries.exit, label %for.body.i, !llvm.loop !8

qdict_count_prefixed_entries.exit:                ; preds = %for.inc.i
  %tobool.not = icmp eq i32 %count.1.i, 0
  %tobool16.not = icmp eq ptr %call5, null
  %1 = xor i1 %tobool16.not, %tobool.not
  br i1 %1, label %if.end23, label %for.end

if.end23:                                         ; preds = %qdict_count_prefixed_entries.exit
  br i1 %tobool.not, label %if.else35, label %if.then25

if.then25:                                        ; preds = %if.then.i.qdict_count_prefixed_entries.exit_crit_edge, %if.end23
  call void @qdict_extract_subqdict(ptr noundef %src, ptr noundef nonnull %subqdict, ptr noundef nonnull %prefix)
  %2 = load ptr, ptr %subqdict, align 8
  %call27 = call i64 @qdict_size(ptr noundef %2) #7
  %cmp28.not = icmp eq i64 %call27, 0
  br i1 %cmp28.not, label %if.else31, label %if.end32

if.else31:                                        ; preds = %if.then25
  call void @__assert_fail(ptr noundef nonnull @.str.4, ptr noundef nonnull @.str.2, i32 noundef 253, ptr noundef nonnull @__PRETTY_FUNCTION__.qdict_array_split) #8
  unreachable

if.end32:                                         ; preds = %if.then25
  %3 = load ptr, ptr %dst, align 8
  %4 = load ptr, ptr %subqdict, align 8
  call void @qlist_append_obj(ptr noundef %3, ptr noundef %4) #7
  br label %for.inc

if.else35:                                        ; preds = %if.end23
  br i1 %tobool16.not, label %qobject_ref_impl.exit, label %if.then.i18

if.then.i18:                                      ; preds = %if.end13.qdict_count_prefixed_entries.exit_crit_edge, %if.else35
  %refcnt.i = getelementptr inbounds nuw i8, ptr %call5, i64 8
  %5 = load i64, ptr %refcnt.i, align 8
  %inc.i19 = add i64 %5, 1
  store i64 %inc.i19, ptr %refcnt.i, align 8
  br label %qobject_ref_impl.exit

qobject_ref_impl.exit:                            ; preds = %if.else35, %if.then.i18
  call void @qdict_del(ptr noundef %src, ptr noundef nonnull %indexstr) #7
  %6 = load ptr, ptr %dst, align 8
  call void @qlist_append_obj(ptr noundef %6, ptr noundef %call5) #7
  br label %for.inc

for.inc:                                          ; preds = %if.end32, %qobject_ref_impl.exit
  %inc = add nuw i32 %i.031, 1
  %cmp.not = icmp eq i32 %inc, -1
  br i1 %cmp.not, label %for.end, label %for.body, !llvm.loop !9

for.end:                                          ; preds = %if.end13.qdict_count_prefixed_entries.exit_crit_edge, %if.then.i.qdict_count_prefixed_entries.exit_crit_edge, %qdict_count_prefixed_entries.exit, %for.inc
  ret void
}